; Function Attrs: mustprogress nofree norecurse nosync nounwind willreturn memory(none) uwtable
define noundef nonnull align 8 dereferenceable(64) ptr @_ZNK6icu_756number4impl30PropertiesAffixPatternProvider17getStringInternalEi(ptr noundef nonnull readnone align 8 dereferenceable(267) %this, i32 noundef %flags) local_unnamed_addr #8 align 2 {
entry:
  %and2 = and i32 %flags, 512
  %cmp3.not = icmp eq i32 %and2, 0
  %0 = and i32 %flags, 768
  %brmerge.not = icmp eq i32 %0, 768
  %and = and i32 %flags, 256
  %cmp.not = icmp eq i32 %and, 0
  %. = select i1 %cmp3.not, i64 72, i64 200
  %spec.select = select i1 %cmp.not, i64 %., i64 8
  %.sink = select i1 %brmerge.not, i64 136, i64 %spec.select
  %posSuffix = getelementptr inbounds i8, ptr %this, i64 %.sink
  ret ptr %posSuffix
}